target datalayout = "e-m:e-p270:32:32-p271:32:32-p272:64:64-i64:64-i128:128-f80:128-n8:16:32:64-S128"
target triple = "x86_64-pc-linux-gnu"

; Function Attrs: nounwind sspstrong uwtable
define internal i32 @code_to_mbclen(i32 noundef %0, ptr noundef %1) #0 {
  %3 = alloca i32, align 4
  %4 = alloca i32, align 4
  %5 = alloca ptr, align 8
  store i32 %0, ptr %4, align 4, !tbaa !17
  store ptr %1, ptr %5, align 8, !tbaa !14
  %6 = load i32, ptr %4, align 4, !tbaa !17
  %7 = icmp ult i32 %6, 128
  br i1 %7, label %8, label %9

8:                                                ; preds = %2
  store i32 1, ptr %3, align 4
  br label %24

9:                                                ; preds = %2
  %10 = load i32, ptr %4, align 4, !tbaa !17
  %11 = icmp ugt i32 %10, 16777215
  br i1 %11, label %12, label %13

12:                                               ; preds = %9
  store i32 -401, ptr %3, align 4
  br label %24

13:                                               ; preds = %9
  %14 = load i32, ptr %4, align 4, !tbaa !17
  %15 = and i32 %14, -8355712
  %16 = icmp eq i32 %15, 8421504
  br i1 %16, label %17, label %18

17:                                               ; preds = %13
  store i32 3, ptr %3, align 4
  br label %24

18:                                               ; preds = %13
  %19 = load i32, ptr %4, align 4, !tbaa !17
  %20 = and i32 %19, -32640
  %21 = icmp eq i32 %20, 32896
  br i1 %21, label %22, label %23

22:                                               ; preds = %18
  store i32 2, ptr %3, align 4
  br label %24

23:                                               ; preds = %18
  store i32 -400, ptr %3, align 4
  br label %24

24:                                               ; preds = %23, %22, %17, %12, %8
  %25 = load i32, ptr %3, align 4
  ret i32 %25
}