; Function Attrs: mustprogress nofree norecurse nosync nounwind sspstrong willreturn memory(none) uwtable
define internal range(i32 -401, 4) i32 @code_to_mbclen(i32 noundef %0, ptr readnone captures(none) %1) #4 {
  %3 = icmp ult i32 %0, 128
  br i1 %3, label %12, label %4

4:                                                ; preds = %2
  %5 = icmp ugt i32 %0, 16777215
  br i1 %5, label %12, label %6

6:                                                ; preds = %4
  %7 = and i32 %0, 8421504
  %8 = icmp eq i32 %7, 8421504
  br i1 %8, label %12, label %9

9:                                                ; preds = %6
  %10 = and i32 %0, 16744576
  %11 = icmp eq i32 %10, 32896
  %. = select i1 %11, i32 2, i32 -400
  br label %12

12:                                               ; preds = %9, %6, %4, %2
  %.0 = phi i32 [ 1, %2 ], [ -401, %4 ], [ 3, %6 ], [ %., %9 ]
  ret i32 %.0
}